target datalayout = "e-m:e-p270:32:32-p271:32:32-p272:64:64-i64:64-i128:128-f80:128-n8:16:32:64-S128"
target triple = "x86_64-pc-linux-gnu"

%"class.std::vector.37" = type { %"struct.std::_Vector_base.38" }
%"struct.std::_Vector_base.38" = type { %"struct.std::_Vector_base<char *, std::allocator<char *>>::_Vector_impl" }
%"struct.std::_Vector_base<char *, std::allocator<char *>>::_Vector_impl" = type { %"struct.std::_Vector_base<char *, std::allocator<char *>>::_Vector_impl_data" }
%"struct.std::_Vector_base<char *, std::allocator<char *>>::_Vector_impl_data" = type { ptr, ptr, ptr }
%"class.__gnu_cxx::__normal_iterator" = type { ptr }
%"struct.Yosys::RTLIL::IdString" = type { i32 }
%"struct.std::_Vector_base" = type { %"struct.std::_Vector_base<Yosys::RTLIL::IdString, std::allocator<Yosys::RTLIL::IdString>>::_Vector_impl" }
%"struct.std::_Vector_base<Yosys::RTLIL::IdString, std::allocator<Yosys::RTLIL::IdString>>::_Vector_impl" = type { %"struct.std::_Vector_base<Yosys::RTLIL::IdString, std::allocator<Yosys::RTLIL::IdString>>::_Vector_impl_data" }
%"struct.std::_Vector_base<Yosys::RTLIL::IdString, std::allocator<Yosys::RTLIL::IdString>>::_Vector_impl_data" = type { ptr, ptr, ptr }

@.str = private unnamed_addr constant [3 x i8] c"\\[\00", align 1
@.str.1 = private unnamed_addr constant [5 x i8] c"\\[0]\00", align 1
@_ZN5Yosys5RTLIL8IdString18global_id_storage_E = external global %"class.std::vector.37", align 8
@.str.34 = private unnamed_addr constant [74 x i8] c"vector::_M_range_check: __n (which is %zu) >= this->size() (which is %zu)\00", align 1

; Function Attrs: mustprogress nounwind uwtable
define linkonce_odr noundef i64 @_ZNKSt6vectorIPcSaIS0_EE4sizeEv(ptr noundef nonnull align 8 dereferenceable(24) %0) #5 comdat align 2 {
  %2 = alloca ptr, align 8
  store ptr %0, ptr %2, align 8, !tbaa !119
  %3 = load ptr, ptr %2, align 8
  %4 = getelementptr inbounds nuw %"struct.std::_Vector_base.38", ptr %3, i32 0, i32 0
  %5 = getelementptr inbounds nuw %"struct.std::_Vector_base<char *, std::allocator<char *>>::_Vector_impl_data", ptr %4, i32 0, i32 1
  %6 = load ptr, ptr %5, align 8, !tbaa !130
  %7 = getelementptr inbounds nuw %"struct.std::_Vector_base.38", ptr %3, i32 0, i32 0
  %8 = getelementptr inbounds nuw %"struct.std::_Vector_base<char *, std::allocator<char *>>::_Vector_impl_data", ptr %7, i32 0, i32 0
  %9 = load ptr, ptr %8, align 8, !tbaa !128
  %10 = ptrtoint ptr %6 to i64
  %11 = ptrtoint ptr %9 to i64
  %12 = sub i64 %10, %11
  %13 = sdiv exact i64 %12, 8
  ret i64 %13
}

; Function Attrs: mustprogress nounwind uwtable
define linkonce_odr noundef nonnull align 8 dereferenceable(8) ptr @_ZNSt6vectorIPcSaIS0_EEixEm(ptr noundef nonnull align 8 dereferenceable(24) %0, i64 noundef %1) #5 comdat align 2 {
  %3 = alloca ptr, align 8
  %4 = alloca i64, align 8
  store ptr %0, ptr %3, align 8, !tbaa !119
  store i64 %1, ptr %4, align 8, !tbaa !33
  %5 = load ptr, ptr %3, align 8
  %6 = getelementptr inbounds nuw %"struct.std::_Vector_base.38", ptr %5, i32 0, i32 0
  %7 = getelementptr inbounds nuw %"struct.std::_Vector_base<char *, std::allocator<char *>>::_Vector_impl_data", ptr %6, i32 0, i32 0
  %8 = load ptr, ptr %7, align 8, !tbaa !128
  %9 = load i64, ptr %4, align 8, !tbaa !33
  %10 = getelementptr inbounds nuw ptr, ptr %8, i64 %9
  ret ptr %10
}

; Function Attrs: mustprogress uwtable
define linkonce_odr void @_ZNKSt6vectorIPcSaIS0_EE14_M_range_checkEm(ptr noundef nonnull align 8 dereferenceable(24) %0, i64 noundef %1) #4 comdat align 2 {
  %3 = alloca ptr, align 8
  %4 = alloca i64, align 8
  store ptr %0, ptr %3, align 8, !tbaa !119
  store i64 %1, ptr %4, align 8, !tbaa !33
  %5 = load ptr, ptr %3, align 8
  %6 = load i64, ptr %4, align 8, !tbaa !33
  %7 = call noundef i64 @_ZNKSt6vectorIPcSaIS0_EE4sizeEv(ptr noundef nonnull align 8 dereferenceable(24) %5) #3
  %8 = icmp uge i64 %6, %7
  br i1 %8, label %9, label %12

9:                                                ; preds = %2
  %10 = load i64, ptr %4, align 8, !tbaa !33
  %11 = call noundef i64 @_ZNKSt6vectorIPcSaIS0_EE4sizeEv(ptr noundef nonnull align 8 dereferenceable(24) %5) #3
  call void (ptr, ...) @_ZSt24__throw_out_of_range_fmtPKcz(ptr noundef @.str.34, i64 noundef %10, i64 noundef %11) #22
  unreachable

12:                                               ; preds = %2
  ret void
}

; Function Attrs: mustprogress nounwind uwtable
define linkonce_odr noundef nonnull align 8 dereferenceable(8) ptr @_ZNK9__gnu_cxx17__normal_iteratorIPKN5Yosys5RTLIL8IdStringESt6vectorIS3_SaIS3_EEE4baseEv(ptr noundef nonnull align 8 dereferenceable(8) %0) #5 comdat align 2 {
  %2 = alloca ptr, align 8
  store ptr %0, ptr %2, align 8, !tbaa !20
  %3 = load ptr, ptr %2, align 8
  %4 = getelementptr inbounds nuw %"class.__gnu_cxx::__normal_iterator", ptr %3, i32 0, i32 0
  ret ptr %4
}

; Function Attrs: mustprogress nounwind uwtable
define linkonce_odr void @_ZN9__gnu_cxx17__normal_iteratorIPKN5Yosys5RTLIL8IdStringESt6vectorIS3_SaIS3_EEEC2ERKS5_(ptr noundef nonnull align 8 dereferenceable(8) %0, ptr noundef nonnull align 8 dereferenceable(8) %1) unnamed_addr #5 comdat align 2 {
  %3 = alloca ptr, align 8
  %4 = alloca ptr, align 8
  store ptr %0, ptr %3, align 8, !tbaa !20
  store ptr %1, ptr %4, align 8, !tbaa !265
  %5 = load ptr, ptr %3, align 8
  %6 = getelementptr inbounds nuw %"class.__gnu_cxx::__normal_iterator", ptr %5, i32 0, i32 0
  %7 = load ptr, ptr %4, align 8, !tbaa !265
  %8 = load ptr, ptr %7, align 8, !tbaa !11
  store ptr %8, ptr %6, align 8, !tbaa !22
  ret void
}

; Function Attrs: mustprogress uwtable
define linkonce_odr noundef nonnull align 8 dereferenceable(8) ptr @_ZNSt6vectorIPcSaIS0_EE2atEm(ptr noundef nonnull align 8 dereferenceable(24) %0, i64 noundef %1) #4 comdat align 2 {
  %3 = alloca ptr, align 8
  %4 = alloca i64, align 8
  store ptr %0, ptr %3, align 8, !tbaa !119
  store i64 %1, ptr %4, align 8, !tbaa !33
  %5 = load ptr, ptr %3, align 8
  %6 = load i64, ptr %4, align 8, !tbaa !33
  call void @_ZNKSt6vectorIPcSaIS0_EE14_M_range_checkEm(ptr noundef nonnull align 8 dereferenceable(24) %5, i64 noundef %6)
  %7 = load i64, ptr %4, align 8, !tbaa !33
  %8 = call noundef nonnull align 8 dereferenceable(8) ptr @_ZNSt6vectorIPcSaIS0_EEixEm(ptr noundef nonnull align 8 dereferenceable(24) %5, i64 noundef %7) #3
  ret ptr %8
}

; Function Attrs: mustprogress uwtable
define linkonce_odr noundef i32 @_ZNK5Yosys5RTLIL8IdString7compareEmmPKc(ptr noundef nonnull align 4 dereferenceable(4) %0, i64 noundef %1, i64 noundef %2, ptr noundef %3) #4 comdat align 2 {
  %5 = alloca ptr, align 8
  %6 = alloca i64, align 8
  %7 = alloca i64, align 8
  %8 = alloca ptr, align 8
  store ptr %0, ptr %5, align 8, !tbaa !11
  store i64 %1, ptr %6, align 8, !tbaa !33
  store i64 %2, ptr %7, align 8, !tbaa !33
  store ptr %3, ptr %8, align 8, !tbaa !13
  %9 = load ptr, ptr %5, align 8
  %10 = call noundef ptr @_ZNK5Yosys5RTLIL8IdString5c_strEv(ptr noundef nonnull align 4 dereferenceable(4) %9)
  %11 = load i64, ptr %6, align 8, !tbaa !33
  %12 = getelementptr inbounds nuw i8, ptr %10, i64 %11
  %13 = load ptr, ptr %8, align 8, !tbaa !13
  %14 = load i64, ptr %7, align 8, !tbaa !33
  %15 = call i32 @strncmp(ptr noundef %12, ptr noundef %13, i64 noundef %14) #21
  ret i32 %15
}

; Function Attrs: mustprogress uwtable
define linkonce_odr noundef i64 @_ZNK5Yosys5RTLIL8IdString4sizeEv(ptr noundef nonnull align 4 dereferenceable(4) %0) #4 comdat align 2 {
  %2 = alloca ptr, align 8
  store ptr %0, ptr %2, align 8, !tbaa !11
  %3 = load ptr, ptr %2, align 8
  %4 = call noundef ptr @_ZNK5Yosys5RTLIL8IdString5c_strEv(ptr noundef nonnull align 4 dereferenceable(4) %3)
  %5 = call i64 @strlen(ptr noundef %4) #21
  ret i64 %5
}

; Function Attrs: mustprogress nounwind uwtable
define linkonce_odr noundef nonnull align 4 dereferenceable(4) ptr @_ZNK9__gnu_cxx17__normal_iteratorIPKN5Yosys5RTLIL8IdStringESt6vectorIS3_SaIS3_EEEdeEv(ptr noundef nonnull align 8 dereferenceable(8) %0) #5 comdat align 2 {
  %2 = alloca ptr, align 8
  store ptr %0, ptr %2, align 8, !tbaa !20
  %3 = load ptr, ptr %2, align 8
  %4 = getelementptr inbounds nuw %"class.__gnu_cxx::__normal_iterator", ptr %3, i32 0, i32 0
  %5 = load ptr, ptr %4, align 8, !tbaa !22
  ret ptr %5
}

; Function Attrs: mustprogress nounwind uwtable
define linkonce_odr ptr @_ZNK9__gnu_cxx17__normal_iteratorIPKN5Yosys5RTLIL8IdStringESt6vectorIS3_SaIS3_EEEmiEl(ptr noundef nonnull align 8 dereferenceable(8) %0, i64 noundef %1) #5 comdat align 2 {
  %3 = alloca %"class.__gnu_cxx::__normal_iterator", align 8
  %4 = alloca ptr, align 8
  %5 = alloca i64, align 8
  %6 = alloca ptr, align 8
  store ptr %0, ptr %4, align 8, !tbaa !20
  store i64 %1, ptr %5, align 8, !tbaa !33
  %7 = load ptr, ptr %4, align 8
  call void @llvm.lifetime.start.p0(i64 8, ptr %6) #3
  %8 = getelementptr inbounds nuw %"class.__gnu_cxx::__normal_iterator", ptr %7, i32 0, i32 0
  %9 = load ptr, ptr %8, align 8, !tbaa !22
  %10 = load i64, ptr %5, align 8, !tbaa !33
  %11 = sub i64 0, %10
  %12 = getelementptr inbounds %"struct.Yosys::RTLIL::IdString", ptr %9, i64 %11
  store ptr %12, ptr %6, align 8, !tbaa !11
  call void @_ZN9__gnu_cxx17__normal_iteratorIPKN5Yosys5RTLIL8IdStringESt6vectorIS3_SaIS3_EEEC2ERKS5_(ptr noundef nonnull align 8 dereferenceable(8) %3, ptr noundef nonnull align 8 dereferenceable(8) %6) #3
  call void @llvm.lifetime.end.p0(i64 8, ptr %6) #3
  %13 = getelementptr inbounds nuw %"class.__gnu_cxx::__normal_iterator", ptr %3, i32 0, i32 0
  %14 = load ptr, ptr %13, align 8
  ret ptr %14
}

; Function Attrs: inlinehint mustprogress nounwind uwtable
define linkonce_odr noundef zeroext i1 @_ZN9__gnu_cxxeqIPKN5Yosys5RTLIL8IdStringESt6vectorIS3_SaIS3_EEEEbRKNS_17__normal_iteratorIT_T0_EESE_(ptr noundef nonnull align 8 dereferenceable(8) %0, ptr noundef nonnull align 8 dereferenceable(8) %1) #7 comdat {
  %3 = alloca ptr, align 8
  %4 = alloca ptr, align 8
  store ptr %0, ptr %3, align 8, !tbaa !20
  store ptr %1, ptr %4, align 8, !tbaa !20
  %5 = load ptr, ptr %3, align 8, !tbaa !20
  %6 = call noundef nonnull align 8 dereferenceable(8) ptr @_ZNK9__gnu_cxx17__normal_iteratorIPKN5Yosys5RTLIL8IdStringESt6vectorIS3_SaIS3_EEE4baseEv(ptr noundef nonnull align 8 dereferenceable(8) %5) #3
  %7 = load ptr, ptr %6, align 8, !tbaa !11
  %8 = load ptr, ptr %4, align 8, !tbaa !20
  %9 = call noundef nonnull align 8 dereferenceable(8) ptr @_ZNK9__gnu_cxx17__normal_iteratorIPKN5Yosys5RTLIL8IdStringESt6vectorIS3_SaIS3_EEE4baseEv(ptr noundef nonnull align 8 dereferenceable(8) %8) #3
  %10 = load ptr, ptr %9, align 8, !tbaa !11
  %11 = icmp eq ptr %7, %10
  ret i1 %11
}

; Function Attrs: mustprogress nounwind uwtable
define linkonce_odr ptr @_ZNKSt6vectorIN5Yosys5RTLIL8IdStringESaIS2_EE3endEv(ptr noundef nonnull align 8 dereferenceable(24) %0) #5 comdat align 2 {
  %2 = alloca %"class.__gnu_cxx::__normal_iterator", align 8
  %3 = alloca ptr, align 8
  store ptr %0, ptr %3, align 8, !tbaa !18
  %4 = load ptr, ptr %3, align 8
  %5 = getelementptr inbounds nuw %"struct.std::_Vector_base", ptr %4, i32 0, i32 0
  %6 = getelementptr inbounds nuw %"struct.std::_Vector_base<Yosys::RTLIL::IdString, std::allocator<Yosys::RTLIL::IdString>>::_Vector_impl_data", ptr %5, i32 0, i32 1
  call void @_ZN9__gnu_cxx17__normal_iteratorIPKN5Yosys5RTLIL8IdStringESt6vectorIS3_SaIS3_EEEC2ERKS5_(ptr noundef nonnull align 8 dereferenceable(8) %2, ptr noundef nonnull align 8 dereferenceable(8) %6) #3
  %7 = getelementptr inbounds nuw %"class.__gnu_cxx::__normal_iterator", ptr %2, i32 0, i32 0
  %8 = load ptr, ptr %7, align 8
  ret ptr %8
}

; Function Attrs: mustprogress nounwind uwtable
define linkonce_odr ptr @_ZNKSt6vectorIN5Yosys5RTLIL8IdStringESaIS2_EE5beginEv(ptr noundef nonnull align 8 dereferenceable(24) %0) #5 comdat align 2 {
  %2 = alloca %"class.__gnu_cxx::__normal_iterator", align 8
  %3 = alloca ptr, align 8
  store ptr %0, ptr %3, align 8, !tbaa !18
  %4 = load ptr, ptr %3, align 8
  %5 = getelementptr inbounds nuw %"struct.std::_Vector_base", ptr %4, i32 0, i32 0
  %6 = getelementptr inbounds nuw %"struct.std::_Vector_base<Yosys::RTLIL::IdString, std::allocator<Yosys::RTLIL::IdString>>::_Vector_impl_data", ptr %5, i32 0, i32 0
  call void @_ZN9__gnu_cxx17__normal_iteratorIPKN5Yosys5RTLIL8IdStringESt6vectorIS3_SaIS3_EEEC2ERKS5_(ptr noundef nonnull align 8 dereferenceable(8) %2, ptr noundef nonnull align 8 dereferenceable(8) %6) #3
  %7 = getelementptr inbounds nuw %"class.__gnu_cxx::__normal_iterator", ptr %2, i32 0, i32 0
  %8 = load ptr, ptr %7, align 8
  ret ptr %8
}

; Function Attrs: inlinehint mustprogress uwtable
define linkonce_odr noundef ptr @_ZNK5Yosys5RTLIL8IdString5c_strEv(ptr noundef nonnull align 4 dereferenceable(4) %0) #8 comdat align 2 {
  %2 = alloca ptr, align 8
  store ptr %0, ptr %2, align 8, !tbaa !11
  %3 = load ptr, ptr %2, align 8
  %4 = getelementptr inbounds nuw %"struct.Yosys::RTLIL::IdString", ptr %3, i32 0, i32 0
  %5 = load i32, ptr %4, align 4, !tbaa !27
  %6 = sext i32 %5 to i64
  %7 = call noundef nonnull align 8 dereferenceable(8) ptr @_ZNSt6vectorIPcSaIS0_EE2atEm(ptr noundef nonnull align 8 dereferenceable(24) @_ZN5Yosys5RTLIL8IdString18global_id_storage_E, i64 noundef %6)
  %8 = load ptr, ptr %7, align 8, !tbaa !13
  ret ptr %8
}

; Function Attrs: mustprogress uwtable
define linkonce_odr noundef zeroext i1 @_ZNK5Yosys5RTLIL8IdStringeqEPKc(ptr noundef nonnull align 4 dereferenceable(4) %0, ptr noundef %1) #4 comdat align 2 {
  %3 = alloca ptr, align 8
  %4 = alloca ptr, align 8
  store ptr %0, ptr %3, align 8, !tbaa !11
  store ptr %1, ptr %4, align 8, !tbaa !13
  %5 = load ptr, ptr %3, align 8
  %6 = call noundef ptr @_ZNK5Yosys5RTLIL8IdString5c_strEv(ptr noundef nonnull align 4 dereferenceable(4) %5)
  %7 = load ptr, ptr %4, align 8, !tbaa !13
  %8 = call i32 @strcmp(ptr noundef %6, ptr noundef %7) #21
  %9 = icmp eq i32 %8, 0
  ret i1 %9
}

; Function Attrs: mustprogress uwtable
define linkonce_odr noundef zeroext i1 @_ZNK5Yosys5RTLIL8IdString11begins_withEPKc(ptr noundef nonnull align 4 dereferenceable(4) %0, ptr noundef %1) #4 comdat align 2 {
  %3 = alloca i1, align 1
  %4 = alloca ptr, align 8
  %5 = alloca ptr, align 8
  %6 = alloca i64, align 8
  %7 = alloca i32, align 4
  store ptr %0, ptr %4, align 8, !tbaa !11
  store ptr %1, ptr %5, align 8, !tbaa !13
  %8 = load ptr, ptr %4, align 8
  call void @llvm.lifetime.start.p0(i64 8, ptr %6) #3
  %9 = load ptr, ptr %5, align 8, !tbaa !13
  %10 = call i64 @strlen(ptr noundef %9) #21
  store i64 %10, ptr %6, align 8, !tbaa !33
  %11 = call noundef i64 @_ZNK5Yosys5RTLIL8IdString4sizeEv(ptr noundef nonnull align 4 dereferenceable(4) %8)
  %12 = load i64, ptr %6, align 8, !tbaa !33
  %13 = icmp ult i64 %11, %12
  br i1 %13, label %14, label %15

14:                                               ; preds = %2
  store i1 false, ptr %3, align 1
  store i32 1, ptr %7, align 4
  br label %20

15:                                               ; preds = %2
  %16 = load i64, ptr %6, align 8, !tbaa !33
  %17 = load ptr, ptr %5, align 8, !tbaa !13
  %18 = call noundef i32 @_ZNK5Yosys5RTLIL8IdString7compareEmmPKc(ptr noundef nonnull align 4 dereferenceable(4) %8, i64 noundef 0, i64 noundef %16, ptr noundef %17)
  %19 = icmp eq i32 %18, 0
  store i1 %19, ptr %3, align 1
  store i32 1, ptr %7, align 4
  br label %20

20:                                               ; preds = %15, %14
  call void @llvm.lifetime.end.p0(i64 8, ptr %6) #3
  %21 = load i1, ptr %3, align 1
  ret i1 %21
}

; Function Attrs: mustprogress nounwind uwtable
define linkonce_odr noundef nonnull align 4 dereferenceable(4) ptr @_ZNKSt6vectorIN5Yosys5RTLIL8IdStringESaIS2_EE4backEv(ptr noundef nonnull align 8 dereferenceable(24) %0) #5 comdat align 2 {
  %2 = alloca ptr, align 8
  %3 = alloca %"class.__gnu_cxx::__normal_iterator", align 8
  %4 = alloca %"class.__gnu_cxx::__normal_iterator", align 8
  store ptr %0, ptr %2, align 8, !tbaa !18
  %5 = load ptr, ptr %2, align 8
  call void @llvm.lifetime.start.p0(i64 8, ptr %3) #3
  call void @llvm.lifetime.start.p0(i64 8, ptr %4) #3
  %6 = call ptr @_ZNKSt6vectorIN5Yosys5RTLIL8IdStringESaIS2_EE3endEv(ptr noundef nonnull align 8 dereferenceable(24) %5) #3
  %7 = getelementptr inbounds nuw %"class.__gnu_cxx::__normal_iterator", ptr %4, i32 0, i32 0
  store ptr %6, ptr %7, align 8
  %8 = call ptr @_ZNK9__gnu_cxx17__normal_iteratorIPKN5Yosys5RTLIL8IdStringESt6vectorIS3_SaIS3_EEEmiEl(ptr noundef nonnull align 8 dereferenceable(8) %4, i64 noundef 1) #3
  %9 = getelementptr inbounds nuw %"class.__gnu_cxx::__normal_iterator", ptr %3, i32 0, i32 0
  store ptr %8, ptr %9, align 8
  %10 = call noundef nonnull align 4 dereferenceable(4) ptr @_ZNK9__gnu_cxx17__normal_iteratorIPKN5Yosys5RTLIL8IdStringESt6vectorIS3_SaIS3_EEEdeEv(ptr noundef nonnull align 8 dereferenceable(8) %3) #3
  call void @llvm.lifetime.end.p0(i64 8, ptr %4) #3
  call void @llvm.lifetime.end.p0(i64 8, ptr %3) #3
  ret ptr %10
}

; Function Attrs: mustprogress nounwind uwtable
define linkonce_odr noundef zeroext i1 @_ZNKSt6vectorIN5Yosys5RTLIL8IdStringESaIS2_EE5emptyEv(ptr noundef nonnull align 8 dereferenceable(24) %0) #5 comdat align 2 {
  %2 = alloca ptr, align 8
  %3 = alloca %"class.__gnu_cxx::__normal_iterator", align 8
  %4 = alloca %"class.__gnu_cxx::__normal_iterator", align 8
  store ptr %0, ptr %2, align 8, !tbaa !18
  %5 = load ptr, ptr %2, align 8
  call void @llvm.lifetime.start.p0(i64 8, ptr %3) #3
  %6 = call ptr @_ZNKSt6vectorIN5Yosys5RTLIL8IdStringESaIS2_EE5beginEv(ptr noundef nonnull align 8 dereferenceable(24) %5) #3
  %7 = getelementptr inbounds nuw %"class.__gnu_cxx::__normal_iterator", ptr %3, i32 0, i32 0
  store ptr %6, ptr %7, align 8
  call void @llvm.lifetime.start.p0(i64 8, ptr %4) #3
  %8 = call ptr @_ZNKSt6vectorIN5Yosys5RTLIL8IdStringESaIS2_EE3endEv(ptr noundef nonnull align 8 dereferenceable(24) %5) #3
  %9 = getelementptr inbounds nuw %"class.__gnu_cxx::__normal_iterator", ptr %4, i32 0, i32 0
  store ptr %8, ptr %9, align 8
  %10 = call noundef zeroext i1 @_ZN9__gnu_cxxeqIPKN5Yosys5RTLIL8IdStringESt6vectorIS3_SaIS3_EEEEbRKNS_17__normal_iteratorIT_T0_EESE_(ptr noundef nonnull align 8 dereferenceable(8) %3, ptr noundef nonnull align 8 dereferenceable(8) %4) #3
  call void @llvm.lifetime.end.p0(i64 8, ptr %4) #3
  call void @llvm.lifetime.end.p0(i64 8, ptr %3) #3
  ret i1 %10
}

; Function Attrs: mustprogress uwtable
define noundef zeroext i1 @_ZNK5Yosys6IdPath11get_addressERi(ptr noundef nonnull align 8 dereferenceable(24) %0, ptr noundef nonnull align 4 dereferenceable(4) %1) #4 align 2 {
  %3 = alloca i1, align 1
  %4 = alloca ptr, align 8
  %5 = alloca ptr, align 8
  %6 = alloca ptr, align 8
  %7 = alloca i32, align 4
  %8 = alloca i8, align 1
  %9 = alloca ptr, align 8
  store ptr %0, ptr %4, align 8, !tbaa !6
  store ptr %1, ptr %5, align 8, !tbaa !30
  %10 = load ptr, ptr %4, align 8
  %11 = call noundef zeroext i1 @_ZNKSt6vectorIN5Yosys5RTLIL8IdStringESaIS2_EE5emptyEv(ptr noundef nonnull align 8 dereferenceable(24) %10) #3
  br i1 %11, label %12, label %13

12:                                               ; preds = %2
  store i1 false, ptr %3, align 1
  br label %58

13:                                               ; preds = %2
  call void @llvm.lifetime.start.p0(i64 8, ptr %6) #3
  %14 = call noundef nonnull align 4 dereferenceable(4) ptr @_ZNKSt6vectorIN5Yosys5RTLIL8IdStringESaIS2_EE4backEv(ptr noundef nonnull align 8 dereferenceable(24) %10) #3
  store ptr %14, ptr %6, align 8, !tbaa !11
  %15 = load ptr, ptr %6, align 8, !tbaa !11
  %16 = call noundef zeroext i1 @_ZNK5Yosys5RTLIL8IdString11begins_withEPKc(ptr noundef nonnull align 4 dereferenceable(4) %15, ptr noundef @.str)
  br i1 %16, label %18, label %17

17:                                               ; preds = %13
  store i1 false, ptr %3, align 1
  store i32 1, ptr %7, align 4
  br label %57

18:                                               ; preds = %13
  %19 = load ptr, ptr %6, align 8, !tbaa !11
  %20 = call noundef zeroext i1 @_ZNK5Yosys5RTLIL8IdStringeqEPKc(ptr noundef nonnull align 4 dereferenceable(4) %19, ptr noundef @.str.1)
  br i1 %20, label %21, label %23

21:                                               ; preds = %18
  %22 = load ptr, ptr %5, align 8, !tbaa !30
  store i32 0, ptr %22, align 4, !tbaa !32
  store i1 true, ptr %3, align 1
  store i32 1, ptr %7, align 4
  br label %57

23:                                               ; preds = %18
  call void @llvm.lifetime.start.p0(i64 1, ptr %8) #3
  %24 = load ptr, ptr %6, align 8, !tbaa !11
  %25 = call noundef ptr @_ZNK5Yosys5RTLIL8IdString5c_strEv(ptr noundef nonnull align 4 dereferenceable(4) %24)
  %26 = getelementptr inbounds i8, ptr %25, i64 2
  %27 = load i8, ptr %26, align 1, !tbaa !15
  store i8 %27, ptr %8, align 1, !tbaa !15
  %28 = load i8, ptr %8, align 1, !tbaa !15
  %29 = sext i8 %28 to i32
  %30 = icmp slt i32 %29, 49
  br i1 %30, label %35, label %31

31:                                               ; preds = %23
  %32 = load i8, ptr %8, align 1, !tbaa !15
  %33 = sext i8 %32 to i32
  %34 = icmp sgt i32 %33, 57
  br i1 %34, label %35, label %36

35:                                               ; preds = %31, %23
  store i1 false, ptr %3, align 1
  store i32 1, ptr %7, align 4
  br label %56

36:                                               ; preds = %31
  call void @llvm.lifetime.start.p0(i64 8, ptr %9) #3
  %37 = load ptr, ptr %6, align 8, !tbaa !11
  %38 = call noundef ptr @_ZNK5Yosys5RTLIL8IdString5c_strEv(ptr noundef nonnull align 4 dereferenceable(4) %37)
  %39 = getelementptr inbounds i8, ptr %38, i64 2
  %40 = call i64 @strtol(ptr noundef %39, ptr noundef %9, i32 noundef 10) #3
  %41 = trunc i64 %40 to i32
  %42 = load ptr, ptr %5, align 8, !tbaa !30
  store i32 %41, ptr %42, align 4, !tbaa !32
  %43 = load ptr, ptr %9, align 8, !tbaa !13
  %44 = getelementptr inbounds i8, ptr %43, i64 0
  %45 = load i8, ptr %44, align 1, !tbaa !15
  %46 = sext i8 %45 to i32
  %47 = icmp eq i32 %46, 93
  br i1 %47, label %48, label %54

48:                                               ; preds = %36
  %49 = load ptr, ptr %9, align 8, !tbaa !13
  %50 = getelementptr inbounds i8, ptr %49, i64 1
  %51 = load i8, ptr %50, align 1, !tbaa !15
  %52 = sext i8 %51 to i32
  %53 = icmp eq i32 %52, 0
  br label %54

54:                                               ; preds = %48, %36
  %55 = phi i1 [ false, %36 ], [ %53, %48 ]
  store i1 %55, ptr %3, align 1
  store i32 1, ptr %7, align 4
  call void @llvm.lifetime.end.p0(i64 8, ptr %9) #3
  br label %56

56:                                               ; preds = %54, %35
  call void @llvm.lifetime.end.p0(i64 1, ptr %8) #3
  br label %57

57:                                               ; preds = %56, %21, %17
  call void @llvm.lifetime.end.p0(i64 8, ptr %6) #3
  br label %58

58:                                               ; preds = %57, %12
  %59 = load i1, ptr %3, align 1
  ret i1 %59
}