; Function Attrs: mustprogress uwtable
define noundef zeroext i1 @_ZNK5Yosys6IdPath11get_addressERi(ptr noundef nonnull readonly align 8 captures(none) dereferenceable(24) %0, ptr noundef nonnull writeonly align 4 captures(none) dereferenceable(4) %1) local_unnamed_addr #3 align 2 {
  %3 = alloca ptr, align 8
  %4 = load ptr, ptr %0, align 8, !tbaa !16
  %5 = getelementptr inbounds nuw i8, ptr %0, i64 8
  %6 = load ptr, ptr %5, align 8, !tbaa !16
  %7 = icmp eq ptr %4, %6
  br i1 %7, label %_ZNK5Yosys5RTLIL8IdString11begins_withEPKc.exit.thread, label %8

8:                                                ; preds = %2
  %9 = getelementptr inbounds i8, ptr %6, i64 -4
  %10 = load i32, ptr %9, align 4, !tbaa !18
  %11 = sext i32 %10 to i64
  %12 = load ptr, ptr getelementptr inbounds nuw (i8, ptr @_ZN5Yosys5RTLIL8IdString18global_id_storage_E, i64 8), align 8, !tbaa !25
  %13 = load ptr, ptr @_ZN5Yosys5RTLIL8IdString18global_id_storage_E, align 8, !tbaa !29
  %14 = ptrtoint ptr %12 to i64
  %15 = ptrtoint ptr %13 to i64
  %16 = sub i64 %14, %15
  %17 = ashr exact i64 %16, 3
  %.not.i.i.i.i.i = icmp ugt i64 %17, %11
  br i1 %.not.i.i.i.i.i, label %_ZNK5Yosys5RTLIL8IdString4sizeEv.exit.i, label %18

18:                                               ; preds = %8
  tail call void (ptr, ...) @_ZSt24__throw_out_of_range_fmtPKcz(ptr noundef nonnull @.str.34, i64 noundef %11, i64 noundef %17) #25
  unreachable

_ZNK5Yosys5RTLIL8IdString4sizeEv.exit.i:          ; preds = %8
  %19 = getelementptr inbounds nuw ptr, ptr %13, i64 %11
  %20 = load ptr, ptr %19, align 8, !tbaa !30
  %21 = tail call noundef i64 @strlen(ptr noundef nonnull dereferenceable(1) %20) #29
  %22 = icmp ult i64 %21, 2
  br i1 %22, label %_ZNK5Yosys5RTLIL8IdString11begins_withEPKc.exit.thread, label %sub_0

sub_0:                                            ; preds = %_ZNK5Yosys5RTLIL8IdString4sizeEv.exit.i
  %23 = load i8, ptr %20, align 1
  %.not = icmp eq i8 %23, 92
  br i1 %.not, label %_ZNK5Yosys5RTLIL8IdString11begins_withEPKc.exit.tail, label %_ZNK5Yosys5RTLIL8IdString11begins_withEPKc.exit.thread

_ZNK5Yosys5RTLIL8IdString11begins_withEPKc.exit.tail: ; preds = %sub_0
  %24 = getelementptr inbounds nuw i8, ptr %20, i64 1
  %25 = load i8, ptr %24, align 1
  %26 = icmp eq i8 %25, 91
  br i1 %26, label %_ZNK5Yosys5RTLIL8IdStringeqEPKc.exit, label %_ZNK5Yosys5RTLIL8IdString11begins_withEPKc.exit.thread

_ZNK5Yosys5RTLIL8IdStringeqEPKc.exit:             ; preds = %_ZNK5Yosys5RTLIL8IdString11begins_withEPKc.exit.tail
  %27 = tail call i32 @strcmp(ptr noundef nonnull dereferenceable(1) %20, ptr noundef nonnull dereferenceable(5) @.str.1) #29
  %28 = icmp eq i32 %27, 0
  br i1 %28, label %29, label %_ZNK5Yosys5RTLIL8IdString5c_strEv.exit

29:                                               ; preds = %_ZNK5Yosys5RTLIL8IdStringeqEPKc.exit
  store i32 0, ptr %1, align 4, !tbaa !24
  br label %_ZNK5Yosys5RTLIL8IdString11begins_withEPKc.exit.thread

_ZNK5Yosys5RTLIL8IdString5c_strEv.exit:           ; preds = %_ZNK5Yosys5RTLIL8IdStringeqEPKc.exit
  %30 = getelementptr inbounds nuw i8, ptr %20, i64 2
  %31 = load i8, ptr %30, align 1, !tbaa !15
  %32 = add i8 %31, -58
  %or.cond = icmp ult i8 %32, -9
  br i1 %or.cond, label %_ZNK5Yosys5RTLIL8IdString11begins_withEPKc.exit.thread, label %_ZNK5Yosys5RTLIL8IdString5c_strEv.exit12

_ZNK5Yosys5RTLIL8IdString5c_strEv.exit12:         ; preds = %_ZNK5Yosys5RTLIL8IdString5c_strEv.exit
  call void @llvm.lifetime.start.p0(i64 8, ptr nonnull %3) #27
  %33 = call i64 @strtol(ptr noundef nonnull %30, ptr noundef nonnull %3, i32 noundef 10) #27
  %34 = trunc i64 %33 to i32
  store i32 %34, ptr %1, align 4, !tbaa !24
  %35 = load ptr, ptr %3, align 8, !tbaa !30
  %36 = load i8, ptr %35, align 1, !tbaa !15
  %37 = icmp eq i8 %36, 93
  br i1 %37, label %38, label %42

38:                                               ; preds = %_ZNK5Yosys5RTLIL8IdString5c_strEv.exit12
  %39 = getelementptr inbounds nuw i8, ptr %35, i64 1
  %40 = load i8, ptr %39, align 1, !tbaa !15
  %41 = icmp eq i8 %40, 0
  br label %42

42:                                               ; preds = %38, %_ZNK5Yosys5RTLIL8IdString5c_strEv.exit12
  %43 = phi i1 [ false, %_ZNK5Yosys5RTLIL8IdString5c_strEv.exit12 ], [ %41, %38 ]
  call void @llvm.lifetime.end.p0(i64 8, ptr nonnull %3) #27
  br label %_ZNK5Yosys5RTLIL8IdString11begins_withEPKc.exit.thread

_ZNK5Yosys5RTLIL8IdString11begins_withEPKc.exit.thread: ; preds = %sub_0, %_ZNK5Yosys5RTLIL8IdString4sizeEv.exit.i, %29, %_ZNK5Yosys5RTLIL8IdString11begins_withEPKc.exit.tail, %_ZNK5Yosys5RTLIL8IdString5c_strEv.exit, %42, %2
  %.0 = phi i1 [ false, %2 ], [ true, %29 ], [ false, %_ZNK5Yosys5RTLIL8IdString11begins_withEPKc.exit.tail ], [ %43, %42 ], [ false, %_ZNK5Yosys5RTLIL8IdString5c_strEv.exit ], [ false, %_ZNK5Yosys5RTLIL8IdString4sizeEv.exit.i ], [ false, %sub_0 ]
  ret i1 %.0
}